target datalayout = "e-m:e-p270:32:32-p271:32:32-p272:64:64-i64:64-i128:128-f80:128-n8:16:32:64-S128"
target triple = "x86_64-pc-linux-gnu"

%"class.base::File" = type <{ %"class.base::ScopedGeneric", [4 x i8], %"class.base::FilePath", [4 x i8], i32, i8, i8, [6 x i8] }>
%"class.base::ScopedGeneric" = type { %"struct.base::ScopedGeneric<int, base::internal::ScopedFDCloseTraits>::Data" }
%"struct.base::ScopedGeneric<int, base::internal::ScopedFDCloseTraits>::Data" = type { i32 }
%"class.base::FilePath" = type { %"class.std::__cxx11::basic_string" }
%"class.std::__cxx11::basic_string" = type { %"struct.std::__cxx11::basic_string<char>::_Alloc_hider", i64, %union.anon }
%"struct.std::__cxx11::basic_string<char>::_Alloc_hider" = type { ptr }
%union.anon = type { i64, [8 x i8] }
%"class.base::FileTracing::ScopedTrace" = type { ptr, ptr }

@.str.4 = private unnamed_addr constant [23 x i8] c"File::ReadNoBestEffort\00", align 1

; Function Attrs: mustprogress nounwind uwtable
define linkonce_odr noundef nonnull align 4 dereferenceable(4) ptr @_ZNK4base13ScopedGenericIiNS_8internal19ScopedFDCloseTraitsEE3getEv(ptr noundef nonnull align 4 dereferenceable(4) %0) #4 comdat align 2 {
  %2 = alloca ptr, align 8
  store ptr %0, ptr %2, align 8, !tbaa !36
  %3 = load ptr, ptr %2, align 8
  %4 = getelementptr inbounds nuw %"class.base::ScopedGeneric", ptr %3, i32 0, i32 0
  %5 = getelementptr inbounds nuw %"struct.base::ScopedGeneric<int, base::internal::ScopedFDCloseTraits>::Data", ptr %4, i32 0, i32 0
  ret ptr %5
}

; Function Attrs: mustprogress nounwind uwtable
define linkonce_odr void @_ZN4base18ThreadRestrictions15AssertIOAllowedEv() #4 comdat align 2 {
  ret void
}

; Function Attrs: mustprogress uwtable
define noundef i32 @_ZN4base4File16ReadNoBestEffortElPci(ptr noundef nonnull align 8 dereferenceable(50) %0, i64 noundef %1, ptr noundef %2, i32 noundef %3) #0 align 2 personality ptr @__gxx_personality_v0 {
  %5 = alloca ptr, align 8
  %6 = alloca i64, align 8
  %7 = alloca ptr, align 8
  %8 = alloca i32, align 4
  %9 = alloca %"class.base::FileTracing::ScopedTrace", align 8
  %10 = alloca ptr, align 8
  %11 = alloca i32, align 4
  %12 = alloca i64, align 8
  %13 = alloca i64, align 8
  store ptr %0, ptr %5, align 8, !tbaa !34
  store i64 %1, ptr %6, align 8, !tbaa !24
  store ptr %2, ptr %7, align 8, !tbaa !46
  store i32 %3, ptr %8, align 4, !tbaa !41
  %14 = load ptr, ptr %5, align 8
  call void @_ZN4base18ThreadRestrictions15AssertIOAllowedEv()
  call void @llvm.lifetime.start.p0(i64 16, ptr %9) #14
  call void @_ZN4base11FileTracing11ScopedTraceC1Ev(ptr noundef nonnull align 8 dereferenceable(16) %9)
  %15 = invoke noundef zeroext i1 @_ZN4base11FileTracing17IsCategoryEnabledEv()
          to label %16 unwind label %21

16:                                               ; preds = %4
  br i1 %15, label %17, label %25

17:                                               ; preds = %16
  %18 = load i32, ptr %8, align 4, !tbaa !41
  %19 = sext i32 %18 to i64
  invoke void @_ZN4base11FileTracing11ScopedTrace10InitializeEPKcPKNS_4FileEl(ptr noundef nonnull align 8 dereferenceable(16) %9, ptr noundef @.str.4, ptr noundef %14, i64 noundef %19)
          to label %20 unwind label %21

20:                                               ; preds = %17
  br label %25

21:                                               ; preds = %17, %4
  %22 = landingpad { ptr, i32 }
          cleanup
  %23 = extractvalue { ptr, i32 } %22, 0
  store ptr %23, ptr %10, align 8
  %24 = extractvalue { ptr, i32 } %22, 1
  store i32 %24, ptr %11, align 4
  br label %54

25:                                               ; preds = %20, %16
  call void @llvm.lifetime.start.p0(i64 8, ptr %12) #14
  br label %26

26:                                               ; preds = %44, %25
  %27 = getelementptr inbounds nuw %"class.base::File", ptr %14, i32 0, i32 0
  %28 = invoke noundef nonnull align 4 dereferenceable(4) ptr @_ZNK4base13ScopedGenericIiNS_8internal19ScopedFDCloseTraitsEE3getEv(ptr noundef nonnull align 4 dereferenceable(4) %27)
          to label %29 unwind label %50

29:                                               ; preds = %26
  %30 = load i32, ptr %28, align 4, !tbaa !41
  %31 = load ptr, ptr %7, align 8, !tbaa !46
  %32 = load i32, ptr %8, align 4, !tbaa !41
  %33 = sext i32 %32 to i64
  %34 = load i64, ptr %6, align 8, !tbaa !24
  %35 = invoke i64 @pread(i32 noundef %30, ptr noundef %31, i64 noundef %33, i64 noundef %34)
          to label %36 unwind label %50

36:                                               ; preds = %29
  store i64 %35, ptr %12, align 8, !tbaa !24
  br label %37

37:                                               ; preds = %36
  %38 = load i64, ptr %12, align 8, !tbaa !24
  %39 = icmp eq i64 %38, -1
  br i1 %39, label %40, label %44

40:                                               ; preds = %37
  %41 = call ptr @__errno_location() #16
  %42 = load i32, ptr %41, align 4, !tbaa !41
  %43 = icmp eq i32 %42, 4
  br label %44

44:                                               ; preds = %40, %37
  %45 = phi i1 [ false, %37 ], [ %43, %40 ]
  br i1 %45, label %26, label %46, !llvm.loop !53

46:                                               ; preds = %44
  %47 = load i64, ptr %12, align 8, !tbaa !24
  store i64 %47, ptr %13, align 8, !tbaa !24
  call void @llvm.lifetime.end.p0(i64 8, ptr %12) #14
  %48 = load i64, ptr %13, align 8, !tbaa !24
  %49 = trunc i64 %48 to i32
  call void @_ZN4base11FileTracing11ScopedTraceD1Ev(ptr noundef nonnull align 8 dereferenceable(16) %9) #14
  call void @llvm.lifetime.end.p0(i64 16, ptr %9) #14
  ret i32 %49

50:                                               ; preds = %29, %26
  %51 = landingpad { ptr, i32 }
          cleanup
  %52 = extractvalue { ptr, i32 } %51, 0
  store ptr %52, ptr %10, align 8
  %53 = extractvalue { ptr, i32 } %51, 1
  store i32 %53, ptr %11, align 4
  call void @llvm.lifetime.end.p0(i64 8, ptr %12) #14
  br label %54

54:                                               ; preds = %50, %21
  call void @_ZN4base11FileTracing11ScopedTraceD1Ev(ptr noundef nonnull align 8 dereferenceable(16) %9) #14
  call void @llvm.lifetime.end.p0(i64 16, ptr %9) #14
  br label %55

55:                                               ; preds = %54
  %56 = load ptr, ptr %10, align 8
  %57 = load i32, ptr %11, align 4
  %58 = insertvalue { ptr, i32 } poison, ptr %56, 0
  %59 = insertvalue { ptr, i32 } %58, i32 %57, 1
  resume { ptr, i32 } %59
}