; Function Attrs: mustprogress uwtable
define noundef i32 @_ZN4base4File16ReadNoBestEffortElPci(ptr noundef nonnull align 8 dereferenceable(50) %0, i64 noundef %1, ptr noundef captures(none) %2, i32 noundef %3) local_unnamed_addr #0 align 2 personality ptr @__gxx_personality_v0 {
  %5 = alloca %"class.base::FileTracing::ScopedTrace", align 8
  call void @llvm.lifetime.start.p0(i64 16, ptr nonnull %5) #14
  call void @_ZN4base11FileTracing11ScopedTraceC1Ev(ptr noundef nonnull align 8 dereferenceable(16) %5)
  %6 = invoke noundef zeroext i1 @_ZN4base11FileTracing17IsCategoryEnabledEv()
          to label %7 unwind label %10

7:                                                ; preds = %4
  %8 = sext i32 %3 to i64
  br i1 %6, label %9, label %._crit_edge.preheader

9:                                                ; preds = %7
  invoke void @_ZN4base11FileTracing11ScopedTrace10InitializeEPKcPKNS_4FileEl(ptr noundef nonnull align 8 dereferenceable(16) %5, ptr noundef nonnull @.str.4, ptr noundef nonnull %0, i64 noundef %8)
          to label %._crit_edge.preheader unwind label %10

._crit_edge.preheader:                            ; preds = %7, %9
  br label %._crit_edge

10:                                               ; preds = %9, %4
  %11 = landingpad { ptr, i32 }
          cleanup
  br label %23

._crit_edge:                                      ; preds = %._crit_edge.preheader, %16
  %12 = load i32, ptr %0, align 8, !tbaa !27
  %13 = invoke i64 @pread(i32 noundef %12, ptr noundef %2, i64 noundef %8, i64 noundef %1)
          to label %14 unwind label %21

14:                                               ; preds = %._crit_edge
  %15 = icmp eq i64 %13, -1
  br i1 %15, label %16, label %.critedge

16:                                               ; preds = %14
  %17 = tail call ptr @__errno_location() #15
  %18 = load i32, ptr %17, align 4, !tbaa !27
  %19 = icmp eq i32 %18, 4
  br i1 %19, label %._crit_edge, label %.critedge, !llvm.loop !33

.critedge:                                        ; preds = %14, %16
  %20 = trunc i64 %13 to i32
  call void @_ZN4base11FileTracing11ScopedTraceD1Ev(ptr noundef nonnull align 8 dereferenceable(16) %5) #14
  call void @llvm.lifetime.end.p0(i64 16, ptr nonnull %5) #14
  ret i32 %20

21:                                               ; preds = %._crit_edge
  %22 = landingpad { ptr, i32 }
          cleanup
  br label %23

23:                                               ; preds = %21, %10
  %.pn = phi { ptr, i32 } [ %22, %21 ], [ %11, %10 ]
  call void @_ZN4base11FileTracing11ScopedTraceD1Ev(ptr noundef nonnull align 8 dereferenceable(16) %5) #14
  call void @llvm.lifetime.end.p0(i64 16, ptr nonnull %5) #14
  resume { ptr, i32 } %.pn
}